target datalayout = "e-m:e-p270:32:32-p271:32:32-p272:64:64-i64:64-i128:128-f80:128-n8:16:32:64-S128"
target triple = "x86_64-pc-linux-gnu"

; Function Attrs: nounwind uwtable
define i32 @stbiw__zlib_countm(ptr noundef %0, ptr noundef %1, i32 noundef %2) #0 {
  %4 = alloca ptr, align 8
  %5 = alloca ptr, align 8
  %6 = alloca i32, align 4
  %7 = alloca i32, align 4
  store ptr %0, ptr %4, align 8, !tbaa !12
  store ptr %1, ptr %5, align 8, !tbaa !12
  store i32 %2, ptr %6, align 4, !tbaa !3
  call void @llvm.lifetime.start.p0(i64 4, ptr %7) #11
  store i32 0, ptr %7, align 4, !tbaa !3
  br label %8

8:                                                ; preds = %33, %3
  %9 = load i32, ptr %7, align 4, !tbaa !3
  %10 = load i32, ptr %6, align 4, !tbaa !3
  %11 = icmp slt i32 %9, %10
  br i1 %11, label %12, label %15

12:                                               ; preds = %8
  %13 = load i32, ptr %7, align 4, !tbaa !3
  %14 = icmp slt i32 %13, 258
  br label %15

15:                                               ; preds = %12, %8
  %16 = phi i1 [ false, %8 ], [ %14, %12 ]
  br i1 %16, label %17, label %36

17:                                               ; preds = %15
  %18 = load ptr, ptr %4, align 8, !tbaa !12
  %19 = load i32, ptr %7, align 4, !tbaa !3
  %20 = sext i32 %19 to i64
  %21 = getelementptr inbounds i8, ptr %18, i64 %20
  %22 = load i8, ptr %21, align 1, !tbaa !18
  %23 = zext i8 %22 to i32
  %24 = load ptr, ptr %5, align 8, !tbaa !12
  %25 = load i32, ptr %7, align 4, !tbaa !3
  %26 = sext i32 %25 to i64
  %27 = getelementptr inbounds i8, ptr %24, i64 %26
  %28 = load i8, ptr %27, align 1, !tbaa !18
  %29 = zext i8 %28 to i32
  %30 = icmp ne i32 %23, %29
  br i1 %30, label %31, label %32

31:                                               ; preds = %17
  br label %36

32:                                               ; preds = %17
  br label %33

33:                                               ; preds = %32
  %34 = load i32, ptr %7, align 4, !tbaa !3
  %35 = add nsw i32 %34, 1
  store i32 %35, ptr %7, align 4, !tbaa !3
  br label %8, !llvm.loop !47

36:                                               ; preds = %31, %15
  %37 = load i32, ptr %7, align 4, !tbaa !3
  call void @llvm.lifetime.end.p0(i64 4, ptr %7) #11
  ret i32 %37
}