; Function Attrs: nofree norecurse nosync nounwind memory(argmem: read) uwtable
define i32 @stbiw__zlib_countm(ptr noundef readonly captures(none) %0, ptr noundef readonly captures(none) %1, i32 noundef %2) local_unnamed_addr #16 {
  %invariant.smin = tail call i32 @llvm.smin.i32(i32 %2, i32 258)
  %4 = icmp sgt i32 %2, 0
  br i1 %4, label %.lr.ph.preheader, label %._crit_edge

.lr.ph.preheader:                                 ; preds = %3
  %wide.trip.count = zext nneg i32 %invariant.smin to i64
  br label %.lr.ph

.lr.ph:                                           ; preds = %.lr.ph.preheader, %9
  %indvars.iv = phi i64 [ 0, %.lr.ph.preheader ], [ %indvars.iv.next, %9 ]
  %5 = getelementptr inbounds nuw i8, ptr %0, i64 %indvars.iv
  %6 = load i8, ptr %5, align 1, !tbaa !11
  %7 = getelementptr inbounds nuw i8, ptr %1, i64 %indvars.iv
  %8 = load i8, ptr %7, align 1, !tbaa !11
  %.not = icmp eq i8 %6, %8
  br i1 %.not, label %9, label %._crit_edge.loopexit.split.loop.exit

9:                                                ; preds = %.lr.ph
  %indvars.iv.next = add nuw nsw i64 %indvars.iv, 1
  %exitcond.not = icmp eq i64 %indvars.iv.next, %wide.trip.count
  br i1 %exitcond.not, label %._crit_edge, label %.lr.ph, !llvm.loop !37

._crit_edge.loopexit.split.loop.exit:             ; preds = %.lr.ph
  %10 = trunc nuw nsw i64 %indvars.iv to i32
  br label %._crit_edge

._crit_edge:                                      ; preds = %9, %._crit_edge.loopexit.split.loop.exit, %3
  %.0.lcssa = phi i32 [ 0, %3 ], [ %10, %._crit_edge.loopexit.split.loop.exit ], [ %invariant.smin, %9 ]
  ret i32 %.0.lcssa
}